; Function Attrs: nounwind uwtable
define noundef i32 @H5G_name_free(ptr nocapture noundef %0) local_unnamed_addr #2 {
  %2 = load ptr, ptr %0, align 8
  %.not = icmp eq ptr %2, null
  br i1 %.not, label %5, label %3

3:                                                ; preds = %1
  %4 = tail call i32 @H5RS_decr(ptr noundef nonnull %2) #10
  store ptr null, ptr %0, align 8
  br label %5

5:                                                ; preds = %3, %1
  %6 = getelementptr inbounds i8, ptr %0, i64 8
  %7 = load ptr, ptr %6, align 8
  %.not8 = icmp eq ptr %7, null
  br i1 %.not8, label %10, label %8

8:                                                ; preds = %5
  %9 = tail call i32 @H5RS_decr(ptr noundef nonnull %7) #10
  store ptr null, ptr %6, align 8
  br label %10

10:                                               ; preds = %8, %5
  %11 = getelementptr inbounds i8, ptr %0, i64 16
  store i32 0, ptr %11, align 8
  ret i32 0
}